; Function Attrs: nounwind uwtable
define dso_local void @__archive_read_free_filters(ptr noundef captures(none) %0) local_unnamed_addr #0 {
  %2 = getelementptr i8, ptr %0, i64 632
  %.val = load ptr, ptr %2, align 8, !tbaa !53
  %.not1.i = icmp eq ptr %.val, null
  br i1 %.not1.i, label %._crit_edge, label %.lr.ph.i

.lr.ph.i:                                         ; preds = %1, %14
  %.03.i = phi ptr [ %4, %14 ], [ %.val, %1 ]
  %3 = getelementptr inbounds nuw i8, ptr %.03.i, i64 16
  %4 = load ptr, ptr %3, align 8, !tbaa !63
  %5 = getelementptr inbounds nuw i8, ptr %.03.i, i64 137
  %6 = load i8, ptr %5, align 1, !tbaa !64
  %.not17.i = icmp eq i8 %6, 0
  br i1 %.not17.i, label %7, label %14

7:                                                ; preds = %.lr.ph.i
  %8 = getelementptr inbounds nuw i8, ptr %.03.i, i64 32
  %9 = load ptr, ptr %8, align 8, !tbaa !47
  %.not18.i = icmp eq ptr %9, null
  br i1 %.not18.i, label %14, label %10

10:                                               ; preds = %7
  %11 = getelementptr inbounds nuw i8, ptr %9, i64 8
  %12 = load ptr, ptr %11, align 8, !tbaa !65
  %13 = tail call i32 %12(ptr noundef nonnull %.03.i) #15
  store i8 1, ptr %5, align 1, !tbaa !64
  br label %14

14:                                               ; preds = %10, %7, %.lr.ph.i
  %15 = getelementptr inbounds nuw i8, ptr %.03.i, i64 72
  %16 = load ptr, ptr %15, align 8, !tbaa !67
  tail call void @free(ptr noundef %16) #15
  store ptr null, ptr %15, align 8, !tbaa !67
  %.not.i = icmp eq ptr %4, null
  br i1 %.not.i, label %close_filters.exit, label %.lr.ph.i, !llvm.loop !68

close_filters.exit:                               ; preds = %14
  %.pr.pre = load ptr, ptr %2, align 8, !tbaa !53
  %.not6 = icmp eq ptr %.pr.pre, null
  br i1 %.not6, label %._crit_edge, label %.lr.ph

.lr.ph:                                           ; preds = %close_filters.exit, %.lr.ph
  %17 = phi ptr [ %19, %.lr.ph ], [ %.pr.pre, %close_filters.exit ]
  %18 = getelementptr inbounds nuw i8, ptr %17, i64 16
  %19 = load ptr, ptr %18, align 8, !tbaa !63
  tail call void @free(ptr noundef nonnull %17) #15
  store ptr %19, ptr %2, align 8, !tbaa !53
  %.not = icmp eq ptr %19, null
  br i1 %.not, label %._crit_edge, label %.lr.ph, !llvm.loop !69

._crit_edge:                                      ; preds = %.lr.ph, %1, %close_filters.exit
  ret void
}